target datalayout = "e-m:e-p270:32:32-p271:32:32-p272:64:64-i64:64-i128:128-f80:128-n8:16:32:64-S128"
target triple = "x86_64-pc-linux-gnu"

%struct.TupleTableSlot = type { i32, i16, i16, ptr, ptr, ptr, ptr, ptr, %struct.ItemPointerData, i32 }
%struct.ItemPointerData = type { %struct.BlockIdData, i16 }
%struct.BlockIdData = type { i16, i16 }
%struct.TupleDescData = type { i32, i32, i32, i32, ptr, [0 x %struct.CompactAttribute] }
%struct.CompactAttribute = type { i32, i16, i8, i8, i8, i8, i8, i8, i8 }
%struct.FormData_pg_attribute = type { i32, %struct.nameData, i32, i16, i16, i32, i16, i8, i8, i8, i8, i8, i8, i8, i8, i8, i8, i8, i16, i32 }
%struct.nameData = type { [64 x i8] }

@.str.1 = private unnamed_addr constant [17 x i8] c"execExprInterp.c\00", align 1
@.str.11 = private unnamed_addr constant [49 x i8] c"attribute number %d exceeds number of columns %d\00", align 1
@.str.13 = private unnamed_addr constant [41 x i8] c"Table has type %s, but query expects %s.\00", align 1
@__func__.CheckVarSlotCompatibility = private unnamed_addr constant [26 x i8] c"CheckVarSlotCompatibility\00", align 1
@.str.41 = private unnamed_addr constant [46 x i8] c"unexpected virtual generated column reference\00", align 1
@.str.42 = private unnamed_addr constant [41 x i8] c"attribute %d of type %s has been dropped\00", align 1
@.str.43 = private unnamed_addr constant [39 x i8] c"attribute %d of type %s has wrong type\00", align 1

; Function Attrs: inlinehint nounwind uwtable
define internal ptr @TupleDescAttr(ptr noundef %0, i32 noundef %1) #2 {
  %3 = alloca ptr, align 8
  %4 = alloca i32, align 4
  %5 = alloca ptr, align 8
  store ptr %0, ptr %3, align 8
  store i32 %1, ptr %4, align 4
  call void @llvm.lifetime.start.p0(i64 8, ptr %5) #11
  %6 = load ptr, ptr %3, align 8
  %7 = load ptr, ptr %3, align 8
  %8 = getelementptr inbounds nuw %struct.TupleDescData, ptr %7, i32 0, i32 0
  %9 = load i32, ptr %8, align 8
  %10 = sext i32 %9 to i64
  %11 = mul i64 %10, 16
  %12 = add i64 24, %11
  %13 = getelementptr inbounds nuw i8, ptr %6, i64 %12
  store ptr %13, ptr %5, align 8
  %14 = load ptr, ptr %5, align 8
  %15 = load i32, ptr %4, align 4
  %16 = sext i32 %15 to i64
  %17 = getelementptr inbounds %struct.FormData_pg_attribute, ptr %14, i64 %16
  call void @llvm.lifetime.end.p0(i64 8, ptr %5) #11
  ret ptr %17
}

; Function Attrs: nounwind uwtable
define internal void @CheckVarSlotCompatibility(ptr noundef %0, i32 noundef %1, i32 noundef %2) #0 {
  %4 = alloca ptr, align 8
  %5 = alloca i32, align 4
  %6 = alloca i32, align 4
  %7 = alloca ptr, align 8
  %8 = alloca ptr, align 8
  store ptr %0, ptr %4, align 8
  store i32 %1, ptr %5, align 4
  store i32 %2, ptr %6, align 4
  %9 = load i32, ptr %5, align 4
  %10 = icmp sgt i32 %9, 0
  br i1 %10, label %11, label %109

11:                                               ; preds = %3
  call void @llvm.lifetime.start.p0(i64 8, ptr %7) #11
  %12 = load ptr, ptr %4, align 8
  %13 = getelementptr inbounds nuw %struct.TupleTableSlot, ptr %12, i32 0, i32 4
  %14 = load ptr, ptr %13, align 8
  store ptr %14, ptr %7, align 8
  call void @llvm.lifetime.start.p0(i64 8, ptr %8) #11
  %15 = load i32, ptr %5, align 4
  %16 = load ptr, ptr %7, align 8
  %17 = getelementptr inbounds nuw %struct.TupleDescData, ptr %16, i32 0, i32 0
  %18 = load i32, ptr %17, align 8
  %19 = icmp sgt i32 %15, %18
  br i1 %19, label %20, label %35

20:                                               ; preds = %11
  br label %21

21:                                               ; preds = %20
  br i1 true, label %22, label %24

22:                                               ; preds = %21
  %23 = call zeroext i1 @errstart_cold(i32 noundef 21, ptr noundef null) #12
  br i1 %23, label %26, label %32

24:                                               ; preds = %21
  %25 = call zeroext i1 @errstart(i32 noundef 21, ptr noundef null)
  br i1 %25, label %26, label %32

26:                                               ; preds = %24, %22
  %27 = load i32, ptr %5, align 4
  %28 = load ptr, ptr %7, align 8
  %29 = getelementptr inbounds nuw %struct.TupleDescData, ptr %28, i32 0, i32 0
  %30 = load i32, ptr %29, align 8
  %31 = call i32 (ptr, ...) @errmsg_internal(ptr noundef @.str.11, i32 noundef %27, i32 noundef %30)
  call void @errfinish(ptr noundef @.str.1, i32 noundef 2323, ptr noundef @__func__.CheckVarSlotCompatibility)
  br label %32

32:                                               ; preds = %26, %24, %22
  unreachable

33:                                               ; No predecessors!
  br label %34

34:                                               ; preds = %33
  br label %35

35:                                               ; preds = %34, %11
  %36 = load ptr, ptr %7, align 8
  %37 = load i32, ptr %5, align 4
  %38 = sub i32 %37, 1
  %39 = call ptr @TupleDescAttr(ptr noundef %36, i32 noundef %38)
  store ptr %39, ptr %8, align 8
  %40 = load ptr, ptr %8, align 8
  %41 = getelementptr inbounds nuw %struct.FormData_pg_attribute, ptr %40, i32 0, i32 15
  %42 = load i8, ptr %41, align 2
  %43 = sext i8 %42 to i32
  %44 = icmp eq i32 %43, 118
  br i1 %44, label %45, label %56

45:                                               ; preds = %35
  br label %46

46:                                               ; preds = %45
  br i1 true, label %47, label %49

47:                                               ; preds = %46
  %48 = call zeroext i1 @errstart_cold(i32 noundef 21, ptr noundef null) #12
  br i1 %48, label %51, label %53

49:                                               ; preds = %46
  %50 = call zeroext i1 @errstart(i32 noundef 21, ptr noundef null)
  br i1 %50, label %51, label %53

51:                                               ; preds = %49, %47
  %52 = call i32 (ptr, ...) @errmsg_internal(ptr noundef @.str.41)
  call void @errfinish(ptr noundef @.str.1, i32 noundef 2329, ptr noundef @__func__.CheckVarSlotCompatibility)
  br label %53

53:                                               ; preds = %51, %49, %47
  unreachable

54:                                               ; No predecessors!
  br label %55

55:                                               ; preds = %54
  br label %56

56:                                               ; preds = %55, %35
  %57 = load ptr, ptr %8, align 8
  %58 = getelementptr inbounds nuw %struct.FormData_pg_attribute, ptr %57, i32 0, i32 16
  %59 = load i8, ptr %58, align 1, !range !7, !noundef !8
  %60 = trunc i8 %59 to i1
  br i1 %60, label %61, label %78

61:                                               ; preds = %56
  br label %62

62:                                               ; preds = %61
  br i1 true, label %63, label %65

63:                                               ; preds = %62
  %64 = call zeroext i1 @errstart_cold(i32 noundef 21, ptr noundef null) #12
  br i1 %64, label %67, label %75

65:                                               ; preds = %62
  %66 = call zeroext i1 @errstart(i32 noundef 21, ptr noundef null)
  br i1 %66, label %67, label %75

67:                                               ; preds = %65, %63
  %68 = call i32 @errcode(i32 noundef 50360452)
  %69 = load i32, ptr %5, align 4
  %70 = load ptr, ptr %7, align 8
  %71 = getelementptr inbounds nuw %struct.TupleDescData, ptr %70, i32 0, i32 1
  %72 = load i32, ptr %71, align 4
  %73 = call ptr @format_type_be(i32 noundef %72)
  %74 = call i32 (ptr, ...) @errmsg(ptr noundef @.str.42, i32 noundef %69, ptr noundef %73)
  call void @errfinish(ptr noundef @.str.1, i32 noundef 2335, ptr noundef @__func__.CheckVarSlotCompatibility)
  br label %75

75:                                               ; preds = %67, %65, %63
  unreachable

76:                                               ; No predecessors!
  br label %77

77:                                               ; preds = %76
  br label %78

78:                                               ; preds = %77, %56
  %79 = load i32, ptr %6, align 4
  %80 = load ptr, ptr %8, align 8
  %81 = getelementptr inbounds nuw %struct.FormData_pg_attribute, ptr %80, i32 0, i32 2
  %82 = load i32, ptr %81, align 4
  %83 = icmp ne i32 %79, %82
  br i1 %83, label %84, label %108

84:                                               ; preds = %78
  br label %85

85:                                               ; preds = %84
  br i1 true, label %86, label %88

86:                                               ; preds = %85
  %87 = call zeroext i1 @errstart_cold(i32 noundef 21, ptr noundef null) #12
  br i1 %87, label %90, label %105

88:                                               ; preds = %85
  %89 = call zeroext i1 @errstart(i32 noundef 21, ptr noundef null)
  br i1 %89, label %90, label %105

90:                                               ; preds = %88, %86
  %91 = call i32 @errcode(i32 noundef 67141764)
  %92 = load i32, ptr %5, align 4
  %93 = load ptr, ptr %7, align 8
  %94 = getelementptr inbounds nuw %struct.TupleDescData, ptr %93, i32 0, i32 1
  %95 = load i32, ptr %94, align 4
  %96 = call ptr @format_type_be(i32 noundef %95)
  %97 = call i32 (ptr, ...) @errmsg(ptr noundef @.str.43, i32 noundef %92, ptr noundef %96)
  %98 = load ptr, ptr %8, align 8
  %99 = getelementptr inbounds nuw %struct.FormData_pg_attribute, ptr %98, i32 0, i32 2
  %100 = load i32, ptr %99, align 4
  %101 = call ptr @format_type_be(i32 noundef %100)
  %102 = load i32, ptr %6, align 4
  %103 = call ptr @format_type_be(i32 noundef %102)
  %104 = call i32 (ptr, ...) @errdetail(ptr noundef @.str.13, ptr noundef %101, ptr noundef %103)
  call void @errfinish(ptr noundef @.str.1, i32 noundef 2344, ptr noundef @__func__.CheckVarSlotCompatibility)
  br label %105

105:                                              ; preds = %90, %88, %86
  unreachable

106:                                              ; No predecessors!
  br label %107

107:                                              ; preds = %106
  br label %108

108:                                              ; preds = %107, %78
  call void @llvm.lifetime.end.p0(i64 8, ptr %8) #11
  call void @llvm.lifetime.end.p0(i64 8, ptr %7) #11
  br label %109

109:                                              ; preds = %108, %3
  ret void
}