; Function Attrs: nounwind uwtable
define internal fastcc void @CheckVarSlotCompatibility(ptr noundef readonly captures(none) %0, i32 noundef %1, i32 noundef %2) unnamed_addr #0 {
  %4 = icmp sgt i32 %1, 0
  br i1 %4, label %5, label %52

5:                                                ; preds = %3
  %6 = getelementptr inbounds nuw i8, ptr %0, i64 16
  %7 = load ptr, ptr %6, align 8
  %8 = load i32, ptr %7, align 8
  %9 = icmp sgt i32 %1, %8
  br i1 %9, label %10, label %14

10:                                               ; preds = %5
  %11 = tail call zeroext i1 @errstart_cold(i32 noundef 21, ptr noundef null) #19
  tail call void @llvm.assume(i1 %11)
  %12 = load i32, ptr %7, align 8
  %13 = tail call i32 (ptr, ...) @errmsg_internal(ptr noundef nonnull @.str.11, i32 noundef %1, i32 noundef %12) #18
  tail call void @errfinish(ptr noundef nonnull @.str.1, i32 noundef 2323, ptr noundef nonnull @__func__.CheckVarSlotCompatibility) #18
  unreachable

14:                                               ; preds = %5
  %15 = zext nneg i32 %8 to i64
  %16 = shl nuw nsw i64 %15, 4
  %17 = getelementptr i8, ptr %7, i64 %16
  %18 = getelementptr i8, ptr %17, i64 24
  %19 = zext nneg i32 %1 to i64
  %20 = getelementptr %struct.FormData_pg_attribute, ptr %18, i64 %19
  %21 = getelementptr i8, ptr %20, i64 -10
  %22 = load i8, ptr %21, align 2
  %23 = icmp eq i8 %22, 118
  br i1 %23, label %24, label %27

24:                                               ; preds = %14
  %25 = tail call zeroext i1 @errstart_cold(i32 noundef 21, ptr noundef null) #19
  tail call void @llvm.assume(i1 %25)
  %26 = tail call i32 (ptr, ...) @errmsg_internal(ptr noundef nonnull @.str.41) #18
  tail call void @errfinish(ptr noundef nonnull @.str.1, i32 noundef 2329, ptr noundef nonnull @__func__.CheckVarSlotCompatibility) #18
  unreachable

27:                                               ; preds = %14
  %28 = getelementptr i8, ptr %20, i64 -9
  %29 = load i8, ptr %28, align 1, !range !8, !noundef !9
  %30 = trunc nuw i8 %29 to i1
  br i1 %30, label %31, label %38

31:                                               ; preds = %27
  %32 = tail call zeroext i1 @errstart_cold(i32 noundef 21, ptr noundef null) #19
  tail call void @llvm.assume(i1 %32)
  %33 = tail call i32 @errcode(i32 noundef 50360452) #18
  %34 = getelementptr inbounds nuw i8, ptr %7, i64 4
  %35 = load i32, ptr %34, align 4
  %36 = tail call ptr @format_type_be(i32 noundef %35) #18
  %37 = tail call i32 (ptr, ...) @errmsg(ptr noundef nonnull @.str.42, i32 noundef %1, ptr noundef %36) #18
  tail call void @errfinish(ptr noundef nonnull @.str.1, i32 noundef 2335, ptr noundef nonnull @__func__.CheckVarSlotCompatibility) #18
  unreachable

38:                                               ; preds = %27
  %39 = getelementptr i8, ptr %20, i64 -32
  %40 = load i32, ptr %39, align 4
  %.not = icmp eq i32 %2, %40
  br i1 %.not, label %52, label %41

41:                                               ; preds = %38
  %42 = tail call zeroext i1 @errstart_cold(i32 noundef 21, ptr noundef null) #19
  tail call void @llvm.assume(i1 %42)
  %43 = tail call i32 @errcode(i32 noundef 67141764) #18
  %44 = getelementptr inbounds nuw i8, ptr %7, i64 4
  %45 = load i32, ptr %44, align 4
  %46 = tail call ptr @format_type_be(i32 noundef %45) #18
  %47 = tail call i32 (ptr, ...) @errmsg(ptr noundef nonnull @.str.43, i32 noundef %1, ptr noundef %46) #18
  %48 = load i32, ptr %39, align 4
  %49 = tail call ptr @format_type_be(i32 noundef %48) #18
  %50 = tail call ptr @format_type_be(i32 noundef %2) #18
  %51 = tail call i32 (ptr, ...) @errdetail(ptr noundef nonnull @.str.13, ptr noundef %49, ptr noundef %50) #18
  tail call void @errfinish(ptr noundef nonnull @.str.1, i32 noundef 2344, ptr noundef nonnull @__func__.CheckVarSlotCompatibility) #18
  unreachable

52:                                               ; preds = %38, %3
  ret void
}